ccopy_reg
_reconstructor
p1
(cgmllib.experiment
Experiment
p2
c__builtin__
object
p3
NtRp4
(dp5
S'end_time_str'
p6
S'20160516_230517'
p7
sS'name'
p8
S'fit_metric_object_split'
p9
sS'start_time_str'
p10
S'20160516_230517'
p11
sS'start_time'
p12
F1463454317.1401441
sS'results'
p13
g1
(cpandas.core.frame
DataFrame
p14
g3
NtRp15
(dp16
S'_metadata'
p17
(lp18
sS'_typ'
p19
S'dataframe'
p20
sS'_data'
p21
g1
(cpandas.core.internals
BlockManager
p22
g3
NtRp23
((lp24
cpandas.core.index
_new_Index
p25
(cpandas.core.index
Index
p26
(dp27
S'data'
p28
cnumpy.core.multiarray
_reconstruct
p29
(cnumpy
ndarray
p30
(I0
tS'b'
tRp31
(I1
(I0
tcnumpy
dtype
p32
(S'O8'
I0
I1
tRp33
(I3
S'|'
NNNI-1
I-1
I63
tbI00
(ltbsg8
NstRp34
ag25
(g26
(dp35
g28
g29
(g30
(I0
tS'b'
tRp36
(I1
(I0
tg33
I00
(ltbsg8
NstRp37
a(l(l(dp38
S'0.14.1'
p39
(dp40
S'axes'
p41
g24
sS'blocks'
p42
(lp43
sstbsbsS'params'
p44
(lp45
(dp46
S'normalize'
p47
I00
sS'C'
F1
sS'subject_data_file'
p48
S'HumanPredictions_20151118.txt'
p49
sS'rank'
p50
I5
sS'method'
p51
S'diag'
p52
sS'threshold'
p53
F0.5
sS'pca'
p54
I01
sS'nfolds'
p55
I50
sS'model_name'
p56
(S'fb'
p57
S''
tp58
sa(dp59
g47
I00
sS'C'
F1
sg48
g49
sg50
I5
sg51
g52
sg53
F0.80000000000000004
sg54
I01
sg55
I50
sg56
g58
sa(dp60
g47
I01
sS'C'
F1
sg48
g49
sg50
I5
sg51
g52
sg53
F0.5
sg54
I01
sg55
I50
sg56
g58
sa(dp61
g47
I01
sS'C'
F1
sg48
g49
sg50
I5
sg51
g52
sg53
F0.80000000000000004
sg54
I01
sg55
I50
sg56
g58
sasS'end_time'
p62
F1463454317.277355
sS'experiment_finished'
p63
I01
sS'experiment_method'
p64
c__main__
fit_metric
p65
sb.