ccopy_reg
_reconstructor
p1
(cgmllib.experiment
Experiment
p2
c__builtin__
object
p3
NtRp4
(dp5
S'end_time_str'
p6
S'20160512_151448'
p7
sS'name'
p8
S'fit_metric_object_split'
p9
sS'start_time_str'
p10
S'20160512_151448'
p11
sS'start_time'
p12
F1463080488.793889
sS'results'
p13
g1
(cpandas.core.frame
DataFrame
p14
g3
NtRp15
(dp16
S'_metadata'
p17
(lp18
sS'_typ'
p19
S'dataframe'
p20
sS'_data'
p21
g1
(cpandas.core.internals
BlockManager
p22
g3
NtRp23
((lp24
cpandas.core.index
_new_Index
p25
(cpandas.core.index
Index
p26
(dp27
S'data'
p28
cnumpy.core.multiarray
_reconstruct
p29
(cnumpy
ndarray
p30
(I0
tS'b'
tRp31
(I1
(I0
tcnumpy
dtype
p32
(S'O8'
I0
I1
tRp33
(I3
S'|'
NNNI-1
I-1
I63
tbI00
(ltbsg8
NstRp34
ag25
(g26
(dp35
g28
g29
(g30
(I0
tS'b'
tRp36
(I1
(I0
tg33
I00
(ltbsg8
NstRp37
a(l(l(dp38
S'0.14.1'
p39
(dp40
S'axes'
p41
g24
sS'blocks'
p42
(lp43
sstbsbsS'params'
p44
(lp45
(dp46
S'normalize'
p47
I00
sS'C'
F1
sS'subject_data_file'
p48
S'HumanPredictions_20151118.txt'
p49
sS'method'
p50
S'diag'
p51
sS'threshold'
p52
F0.5
sS'pca'
p53
I01
sS'nfolds'
p54
I50
sS'model_name'
p55
(S'hmax'
p56
S'c1_0'
p57
tp58
sa(dp59
g47
I00
sS'C'
F1
sg48
g49
sg50
g51
sg52
F0.80000000000000004
sg53
I01
sg54
I50
sg55
g58
sa(dp60
g47
I00
sS'C'
F1
sg48
g49
sg50
g51
sg52
F0.5
sg53
I01
sg54
I50
sg55
(g56
S'c1_1'
p61
tp62
sa(dp63
g47
I00
sS'C'
F1
sg48
g49
sg50
g51
sg52
F0.80000000000000004
sg53
I01
sg54
I50
sg55
g62
sa(dp64
g47
I00
sS'C'
F1
sg48
g49
sg50
g51
sg52
F0.5
sg53
I01
sg54
I50
sg55
(g56
S'c1_2'
p65
tp66
sa(dp67
g47
I00
sS'C'
F1
sg48
g49
sg50
g51
sg52
F0.80000000000000004
sg53
I01
sg54
I50
sg55
g66
sa(dp68
g47
I00
sS'C'
F1
sg48
g49
sg50
g51
sg52
F0.5
sg53
I01
sg54
I50
sg55
(g56
S'c1_3'
p69
tp70
sa(dp71
g47
I00
sS'C'
F1
sg48
g49
sg50
g51
sg52
F0.80000000000000004
sg53
I01
sg54
I50
sg55
g70
sa(dp72
g47
I00
sS'C'
F1
sg48
g49
sg50
g51
sg52
F0.5
sg53
I01
sg54
I50
sg55
(g56
S'c1_4'
p73
tp74
sa(dp75
g47
I00
sS'C'
F1
sg48
g49
sg50
g51
sg52
F0.80000000000000004
sg53
I01
sg54
I50
sg55
g74
sa(dp76
g47
I00
sS'C'
F1
sg48
g49
sg50
g51
sg52
F0.5
sg53
I01
sg54
I50
sg55
(g56
S'c1_5'
p77
tp78
sa(dp79
g47
I00
sS'C'
F1
sg48
g49
sg50
g51
sg52
F0.80000000000000004
sg53
I01
sg54
I50
sg55
g78
sa(dp80
g47
I00
sS'C'
F1
sg48
g49
sg50
g51
sg52
F0.5
sg53
I01
sg54
I50
sg55
(g56
S'c1_6'
p81
tp82
sa(dp83
g47
I00
sS'C'
F1
sg48
g49
sg50
g51
sg52
F0.80000000000000004
sg53
I01
sg54
I50
sg55
g82
sa(dp84
g47
I00
sS'C'
F1
sg48
g49
sg50
g51
sg52
F0.5
sg53
I01
sg54
I50
sg55
(g56
S'c1_7'
p85
tp86
sa(dp87
g47
I00
sS'C'
F1
sg48
g49
sg50
g51
sg52
F0.80000000000000004
sg53
I01
sg54
I50
sg55
g86
sa(dp88
g47
I00
sS'C'
F1
sg48
g49
sg50
g51
sg52
F0.5
sg53
I01
sg54
I50
sg55
(g56
S'c1'
p89
tp90
sa(dp91
g47
I00
sS'C'
F1
sg48
g49
sg50
g51
sg52
F0.80000000000000004
sg53
I01
sg54
I50
sg55
g90
sa(dp92
g47
I00
sS'C'
F1
sg48
g49
sg50
g51
sg52
F0.5
sg53
I01
sg54
I50
sg55
(g56
S'c2_0'
p93
tp94
sa(dp95
g47
I00
sS'C'
F1
sg48
g49
sg50
g51
sg52
F0.80000000000000004
sg53
I01
sg54
I50
sg55
g94
sa(dp96
g47
I00
sS'C'
F1
sg48
g49
sg50
g51
sg52
F0.5
sg53
I01
sg54
I50
sg55
(g56
S'c2_1'
p97
tp98
sa(dp99
g47
I00
sS'C'
F1
sg48
g49
sg50
g51
sg52
F0.80000000000000004
sg53
I01
sg54
I50
sg55
g98
sa(dp100
g47
I00
sS'C'
F1
sg48
g49
sg50
g51
sg52
F0.5
sg53
I01
sg54
I50
sg55
(g56
S'c2_2'
p101
tp102
sa(dp103
g47
I00
sS'C'
F1
sg48
g49
sg50
g51
sg52
F0.80000000000000004
sg53
I01
sg54
I50
sg55
g102
sa(dp104
g47
I00
sS'C'
F1
sg48
g49
sg50
g51
sg52
F0.5
sg53
I01
sg54
I50
sg55
(g56
S'c2_3'
p105
tp106
sa(dp107
g47
I00
sS'C'
F1
sg48
g49
sg50
g51
sg52
F0.80000000000000004
sg53
I01
sg54
I50
sg55
g106
sa(dp108
g47
I00
sS'C'
F1
sg48
g49
sg50
g51
sg52
F0.5
sg53
I01
sg54
I50
sg55
(g56
S'c2_4'
p109
tp110
sa(dp111
g47
I00
sS'C'
F1
sg48
g49
sg50
g51
sg52
F0.80000000000000004
sg53
I01
sg54
I50
sg55
g110
sa(dp112
g47
I00
sS'C'
F1
sg48
g49
sg50
g51
sg52
F0.5
sg53
I01
sg54
I50
sg55
(g56
S'c2_5'
p113
tp114
sa(dp115
g47
I00
sS'C'
F1
sg48
g49
sg50
g51
sg52
F0.80000000000000004
sg53
I01
sg54
I50
sg55
g114
sa(dp116
g47
I00
sS'C'
F1
sg48
g49
sg50
g51
sg52
F0.5
sg53
I01
sg54
I50
sg55
(g56
S'c2_6'
p117
tp118
sa(dp119
g47
I00
sS'C'
F1
sg48
g49
sg50
g51
sg52
F0.80000000000000004
sg53
I01
sg54
I50
sg55
g118
sa(dp120
g47
I00
sS'C'
F1
sg48
g49
sg50
g51
sg52
F0.5
sg53
I01
sg54
I50
sg55
(g56
S'c2_7'
p121
tp122
sa(dp123
g47
I00
sS'C'
F1
sg48
g49
sg50
g51
sg52
F0.80000000000000004
sg53
I01
sg54
I50
sg55
g122
sa(dp124
g47
I00
sS'C'
F1
sg48
g49
sg50
g51
sg52
F0.5
sg53
I01
sg54
I50
sg55
(g56
S'c2'
p125
tp126
sa(dp127
g47
I00
sS'C'
F1
sg48
g49
sg50
g51
sg52
F0.80000000000000004
sg53
I01
sg54
I50
sg55
g126
sa(dp128
g47
I01
sS'C'
F1
sg48
g49
sg50
g51
sg52
F0.5
sg53
I01
sg54
I50
sg55
g58
sa(dp129
g47
I01
sS'C'
F1
sg48
g49
sg50
g51
sg52
F0.80000000000000004
sg53
I01
sg54
I50
sg55
g58
sa(dp130
g47
I01
sS'C'
F1
sg48
g49
sg50
g51
sg52
F0.5
sg53
I01
sg54
I50
sg55
g62
sa(dp131
g47
I01
sS'C'
F1
sg48
g49
sg50
g51
sg52
F0.80000000000000004
sg53
I01
sg54
I50
sg55
g62
sa(dp132
g47
I01
sS'C'
F1
sg48
g49
sg50
g51
sg52
F0.5
sg53
I01
sg54
I50
sg55
g66
sa(dp133
g47
I01
sS'C'
F1
sg48
g49
sg50
g51
sg52
F0.80000000000000004
sg53
I01
sg54
I50
sg55
g66
sa(dp134
g47
I01
sS'C'
F1
sg48
g49
sg50
g51
sg52
F0.5
sg53
I01
sg54
I50
sg55
g70
sa(dp135
g47
I01
sS'C'
F1
sg48
g49
sg50
g51
sg52
F0.80000000000000004
sg53
I01
sg54
I50
sg55
g70
sa(dp136
g47
I01
sS'C'
F1
sg48
g49
sg50
g51
sg52
F0.5
sg53
I01
sg54
I50
sg55
g74
sa(dp137
g47
I01
sS'C'
F1
sg48
g49
sg50
g51
sg52
F0.80000000000000004
sg53
I01
sg54
I50
sg55
g74
sa(dp138
g47
I01
sS'C'
F1
sg48
g49
sg50
g51
sg52
F0.5
sg53
I01
sg54
I50
sg55
g78
sa(dp139
g47
I01
sS'C'
F1
sg48
g49
sg50
g51
sg52
F0.80000000000000004
sg53
I01
sg54
I50
sg55
g78
sa(dp140
g47
I01
sS'C'
F1
sg48
g49
sg50
g51
sg52
F0.5
sg53
I01
sg54
I50
sg55
g82
sa(dp141
g47
I01
sS'C'
F1
sg48
g49
sg50
g51
sg52
F0.80000000000000004
sg53
I01
sg54
I50
sg55
g82
sa(dp142
g47
I01
sS'C'
F1
sg48
g49
sg50
g51
sg52
F0.5
sg53
I01
sg54
I50
sg55
g86
sa(dp143
g47
I01
sS'C'
F1
sg48
g49
sg50
g51
sg52
F0.80000000000000004
sg53
I01
sg54
I50
sg55
g86
sa(dp144
g47
I01
sS'C'
F1
sg48
g49
sg50
g51
sg52
F0.5
sg53
I01
sg54
I50
sg55
g90
sa(dp145
g47
I01
sS'C'
F1
sg48
g49
sg50
g51
sg52
F0.80000000000000004
sg53
I01
sg54
I50
sg55
g90
sa(dp146
g47
I01
sS'C'
F1
sg48
g49
sg50
g51
sg52
F0.5
sg53
I01
sg54
I50
sg55
g94
sa(dp147
g47
I01
sS'C'
F1
sg48
g49
sg50
g51
sg52
F0.80000000000000004
sg53
I01
sg54
I50
sg55
g94
sa(dp148
g47
I01
sS'C'
F1
sg48
g49
sg50
g51
sg52
F0.5
sg53
I01
sg54
I50
sg55
g98
sa(dp149
g47
I01
sS'C'
F1
sg48
g49
sg50
g51
sg52
F0.80000000000000004
sg53
I01
sg54
I50
sg55
g98
sa(dp150
g47
I01
sS'C'
F1
sg48
g49
sg50
g51
sg52
F0.5
sg53
I01
sg54
I50
sg55
g102
sa(dp151
g47
I01
sS'C'
F1
sg48
g49
sg50
g51
sg52
F0.80000000000000004
sg53
I01
sg54
I50
sg55
g102
sa(dp152
g47
I01
sS'C'
F1
sg48
g49
sg50
g51
sg52
F0.5
sg53
I01
sg54
I50
sg55
g106
sa(dp153
g47
I01
sS'C'
F1
sg48
g49
sg50
g51
sg52
F0.80000000000000004
sg53
I01
sg54
I50
sg55
g106
sa(dp154
g47
I01
sS'C'
F1
sg48
g49
sg50
g51
sg52
F0.5
sg53
I01
sg54
I50
sg55
g110
sa(dp155
g47
I01
sS'C'
F1
sg48
g49
sg50
g51
sg52
F0.80000000000000004
sg53
I01
sg54
I50
sg55
g110
sa(dp156
g47
I01
sS'C'
F1
sg48
g49
sg50
g51
sg52
F0.5
sg53
I01
sg54
I50
sg55
g114
sa(dp157
g47
I01
sS'C'
F1
sg48
g49
sg50
g51
sg52
F0.80000000000000004
sg53
I01
sg54
I50
sg55
g114
sa(dp158
g47
I01
sS'C'
F1
sg48
g49
sg50
g51
sg52
F0.5
sg53
I01
sg54
I50
sg55
g118
sa(dp159
g47
I01
sS'C'
F1
sg48
g49
sg50
g51
sg52
F0.80000000000000004
sg53
I01
sg54
I50
sg55
g118
sa(dp160
g47
I01
sS'C'
F1
sg48
g49
sg50
g51
sg52
F0.5
sg53
I01
sg54
I50
sg55
g122
sa(dp161
g47
I01
sS'C'
F1
sg48
g49
sg50
g51
sg52
F0.80000000000000004
sg53
I01
sg54
I50
sg55
g122
sa(dp162
g47
I01
sS'C'
F1
sg48
g49
sg50
g51
sg52
F0.5
sg53
I01
sg54
I50
sg55
g126
sa(dp163
g47
I01
sS'C'
F1
sg48
g49
sg50
g51
sg52
F0.80000000000000004
sg53
I01
sg54
I50
sg55
g126
sasS'end_time'
p164
F1463080488.933887
sS'experiment_finished'
p165
I01
sS'experiment_method'
p166
c__main__
fit_metric
p167
sb.